target datalayout = "e-m:e-p270:32:32-p271:32:32-p272:64:64-i64:64-i128:128-f80:128-n8:16:32:64-S128"
target triple = "x86_64-unknown-linux-gnu"

%class.rational = type { %class.mpq }
%class.mpq = type { %class.mpz, %class.mpz }
%class.mpz = type { i32, i8, ptr }
%class.vector.17 = type { ptr }
%"class.nla::nex_mul" = type { %"class.nla::nex", %class.rational, %class.vector.17 }
%"class.nla::nex" = type { ptr }
%"class.nla::nex_pow" = type <{ ptr, i32, [4 x i8] }>

; Function Attrs: mustprogress nounwind uwtable
define linkonce_odr hidden noundef nonnull align 8 dereferenceable(12) ptr @_ZNK6vectorIN3nla7nex_powELb1EjEixEj(ptr noundef nonnull align 8 dereferenceable(8) %this, i32 noundef %idx) #5 comdat align 2 {
entry:
  %this.addr = alloca ptr, align 8
  %idx.addr = alloca i32, align 4
  store ptr %this, ptr %this.addr, align 8
  store i32 %idx, ptr %idx.addr, align 4
  %this1 = load ptr, ptr %this.addr, align 8
  %m_data = getelementptr inbounds %class.vector.17, ptr %this1, i32 0, i32 0
  %0 = load ptr, ptr %m_data, align 8
  %1 = load i32, ptr %idx.addr, align 4
  %idxprom = zext i32 %1 to i64
  %arrayidx = getelementptr inbounds %"class.nla::nex_pow", ptr %0, i64 %idxprom
  ret ptr %arrayidx
}

; Function Attrs: mustprogress uwtable
define linkonce_odr hidden noundef zeroext i1 @_ZNK3nla3nex6is_sumEv(ptr noundef nonnull align 8 dereferenceable(8) %this) #4 comdat align 2 {
entry:
  %this.addr = alloca ptr, align 8
  store ptr %this, ptr %this.addr, align 8
  %this1 = load ptr, ptr %this.addr, align 8
  %vtable = load ptr, ptr %this1, align 8
  %vfn = getelementptr inbounds ptr, ptr %vtable, i64 1
  %0 = load ptr, ptr %vfn, align 8
  %call = call noundef i32 %0(ptr noundef nonnull align 8 dereferenceable(8) %this1)
  %cmp = icmp eq i32 %call, 2
  ret i1 %cmp
}

; Function Attrs: mustprogress nounwind uwtable
define linkonce_odr hidden noundef ptr @_ZNK3nla7nex_pow1eEv(ptr noundef nonnull align 8 dereferenceable(12) %this) #5 comdat align 2 {
entry:
  %this.addr = alloca ptr, align 8
  store ptr %this, ptr %this.addr, align 8
  %this1 = load ptr, ptr %this.addr, align 8
  %m_e = getelementptr inbounds %"class.nla::nex_pow", ptr %this1, i32 0, i32 0
  %0 = load ptr, ptr %m_e, align 8
  ret ptr %0
}

; Function Attrs: mustprogress uwtable
define linkonce_odr hidden noundef nonnull align 8 dereferenceable(12) ptr @_ZNK3nla7nex_mulixEj(ptr noundef nonnull align 8 dereferenceable(48) %this, i32 noundef %j) #4 comdat align 2 {
entry:
  %this.addr = alloca ptr, align 8
  %j.addr = alloca i32, align 4
  store ptr %this, ptr %this.addr, align 8
  store i32 %j, ptr %j.addr, align 4
  %this1 = load ptr, ptr %this.addr, align 8
  %m_children = getelementptr inbounds %"class.nla::nex_mul", ptr %this1, i32 0, i32 2
  %0 = load i32, ptr %j.addr, align 4
  %call = call noundef nonnull align 8 dereferenceable(12) ptr @_ZNK6vectorIN3nla7nex_powELb1EjEixEj(ptr noundef nonnull align 8 dereferenceable(8) %m_children, i32 noundef %0)
  ret ptr %call
}

; Function Attrs: mustprogress uwtable
define hidden noundef i32 @_ZNK3nla11nex_creator15find_sum_in_mulEPKNS_7nex_mulE(ptr noundef nonnull align 8 dereferenceable(176) %this, ptr noundef %a) #4 align 2 {
entry:
  %retval = alloca i32, align 4
  %this.addr = alloca ptr, align 8
  %a.addr = alloca ptr, align 8
  %j = alloca i32, align 4
  store ptr %this, ptr %this.addr, align 8
  store ptr %a, ptr %a.addr, align 8
  store i32 0, ptr %j, align 4
  br label %for.cond

for.cond:                                         ; preds = %for.inc, %entry
  %0 = load i32, ptr %j, align 4
  %1 = load ptr, ptr %a.addr, align 8
  %vtable = load ptr, ptr %1, align 8
  %vfn = getelementptr inbounds ptr, ptr %vtable, i64 0
  %2 = load ptr, ptr %vfn, align 8
  %call = call noundef i32 %2(ptr noundef nonnull align 8 dereferenceable(48) %1)
  %cmp = icmp ult i32 %0, %call
  br i1 %cmp, label %for.body, label %for.end

for.body:                                         ; preds = %for.cond
  %3 = load ptr, ptr %a.addr, align 8
  %4 = load i32, ptr %j, align 4
  %call2 = call noundef nonnull align 8 dereferenceable(12) ptr @_ZNK3nla7nex_mulixEj(ptr noundef nonnull align 8 dereferenceable(48) %3, i32 noundef %4)
  %call3 = call noundef ptr @_ZNK3nla7nex_pow1eEv(ptr noundef nonnull align 8 dereferenceable(12) %call2)
  %call4 = call noundef zeroext i1 @_ZNK3nla3nex6is_sumEv(ptr noundef nonnull align 8 dereferenceable(8) %call3)
  br i1 %call4, label %if.then, label %if.end

if.then:                                          ; preds = %for.body
  %5 = load i32, ptr %j, align 4
  store i32 %5, ptr %retval, align 4
  br label %return

if.end:                                           ; preds = %for.body
  br label %for.inc

for.inc:                                          ; preds = %if.end
  %6 = load i32, ptr %j, align 4
  %inc = add i32 %6, 1
  store i32 %inc, ptr %j, align 4
  br label %for.cond, !llvm.loop !10

for.end:                                          ; preds = %for.cond
  store i32 -1, ptr %retval, align 4
  br label %return

return:                                           ; preds = %for.end, %if.then
  %7 = load i32, ptr %retval, align 4
  ret i32 %7
}