; Function Attrs: mustprogress uwtable
define hidden noundef i32 @_ZNK3nla11nex_creator15find_sum_in_mulEPKNS_7nex_mulE(ptr nocapture noundef nonnull readnone align 8 dereferenceable(176) %this, ptr noundef %a) local_unnamed_addr #3 align 2 {
entry:
  %m_children.i = getelementptr inbounds i8, ptr %a, i64 40
  %vtable5 = load ptr, ptr %a, align 8
  %0 = load ptr, ptr %vtable5, align 8
  %call6 = tail call noundef i32 %0(ptr noundef nonnull align 8 dereferenceable(48) %a)
  %cmp7.not = icmp eq i32 %call6, 0
  br i1 %cmp7.not, label %return, label %for.body

for.body:                                         ; preds = %entry, %for.inc
  %indvars.iv = phi i64 [ %indvars.iv.next, %for.inc ], [ 0, %entry ]
  %1 = load ptr, ptr %m_children.i, align 8
  %arrayidx.i.i = getelementptr inbounds %"class.nla::nex_pow", ptr %1, i64 %indvars.iv
  %2 = load ptr, ptr %arrayidx.i.i, align 8
  %vtable.i = load ptr, ptr %2, align 8
  %vfn.i = getelementptr inbounds i8, ptr %vtable.i, i64 8
  %3 = load ptr, ptr %vfn.i, align 8
  %call.i = tail call noundef i32 %3(ptr noundef nonnull align 8 dereferenceable(8) %2)
  %cmp.i = icmp eq i32 %call.i, 2
  br i1 %cmp.i, label %return.loopexit.split.loop.exit11, label %for.inc

for.inc:                                          ; preds = %for.body
  %indvars.iv.next = add nuw nsw i64 %indvars.iv, 1
  %vtable = load ptr, ptr %a, align 8
  %4 = load ptr, ptr %vtable, align 8
  %call = tail call noundef i32 %4(ptr noundef nonnull align 8 dereferenceable(48) %a)
  %5 = zext i32 %call to i64
  %cmp = icmp ult i64 %indvars.iv.next, %5
  br i1 %cmp, label %for.body, label %return, !llvm.loop !47

return.loopexit.split.loop.exit11:                ; preds = %for.body
  %6 = trunc i64 %indvars.iv to i32
  br label %return

return:                                           ; preds = %for.inc, %return.loopexit.split.loop.exit11, %entry
  %retval.0 = phi i32 [ -1, %entry ], [ %6, %return.loopexit.split.loop.exit11 ], [ -1, %for.inc ]
  ret i32 %retval.0
}